; Function Attrs: mustprogress uwtable
define void @_ZN12SdfGpuPlugin9preRenderEj(ptr nocapture noundef nonnull readonly align 8 dereferenceable(312) %0, i32 noundef %1) local_unnamed_addr #9 align 2 {
  %.not = icmp eq i32 %1, 0
  br i1 %.not, label %7, label %3

3:                                                ; preds = %2
  %4 = load ptr, ptr @__glewBeginQueryARB, align 8
  %5 = getelementptr inbounds i8, ptr %0, i64 260
  %6 = load i32, ptr %5, align 4
  tail call void %4(i32 noundef 35092, i32 noundef %6)
  br label %7

7:                                                ; preds = %3, %2
  ret void
}